; Function Attrs: mustprogress nofree norecurse nosync nounwind willreturn memory(read, inaccessiblemem: none) uwtable
define hidden noundef i32 @_ZNK10statistics4sizeEv(ptr nocapture noundef nonnull readonly align 8 dereferenceable(16) %this) local_unnamed_addr #8 align 2 {
entry:
  %0 = load ptr, ptr %this, align 8
  %cmp.i = icmp eq ptr %0, null
  br i1 %cmp.i, label %_ZNK6vectorISt4pairIPKcjELb0EjE4sizeEv.exit, label %if.end.i

if.end.i:                                         ; preds = %entry
  %arrayidx.i = getelementptr inbounds i8, ptr %0, i64 -4
  %1 = load i32, ptr %arrayidx.i, align 4
  br label %_ZNK6vectorISt4pairIPKcjELb0EjE4sizeEv.exit

_ZNK6vectorISt4pairIPKcjELb0EjE4sizeEv.exit:      ; preds = %entry, %if.end.i
  %retval.0.i = phi i32 [ %1, %if.end.i ], [ 0, %entry ]
  %m_d_stats = getelementptr inbounds i8, ptr %this, i64 8
  %2 = load ptr, ptr %m_d_stats, align 8
  %cmp.i1 = icmp eq ptr %2, null
  br i1 %cmp.i1, label %_ZNK6vectorISt4pairIPKcdELb0EjE4sizeEv.exit, label %if.end.i2

if.end.i2:                                        ; preds = %_ZNK6vectorISt4pairIPKcjELb0EjE4sizeEv.exit
  %arrayidx.i3 = getelementptr inbounds i8, ptr %2, i64 -4
  %3 = load i32, ptr %arrayidx.i3, align 4
  br label %_ZNK6vectorISt4pairIPKcdELb0EjE4sizeEv.exit

_ZNK6vectorISt4pairIPKcdELb0EjE4sizeEv.exit:      ; preds = %_ZNK6vectorISt4pairIPKcjELb0EjE4sizeEv.exit, %if.end.i2
  %retval.0.i4 = phi i32 [ %3, %if.end.i2 ], [ 0, %_ZNK6vectorISt4pairIPKcjELb0EjE4sizeEv.exit ]
  %add = add i32 %retval.0.i4, %retval.0.i
  ret i32 %add
}